; Function Attrs: mustprogress uwtable
define void @_ZN5folly20IOThreadPoolExecutor30handleObserverUnregisterThreadEPNS_18ThreadPoolExecutor12ThreadHandleERNS1_8ObserverE(ptr nonnull readnone align 64 captures(none) %0, ptr noundef readonly %1, ptr noundef nonnull align 8 dereferenceable(8) %2) unnamed_addr #2 align 2 personality ptr @__gxx_personality_v0 {
  %4 = alloca %"class.google::LogMessageFatal", align 8
  %5 = alloca %"struct.google::CheckOpString", align 8
  %6 = alloca %"class.std::allocator.59", align 1
  %7 = icmp eq ptr %1, null
  br i1 %7, label %.thread, label %8

.thread:                                          ; preds = %3
  call void @llvm.lifetime.start.p0(i64 16, ptr nonnull %4)
  br label %11

8:                                                ; preds = %3
  %9 = tail call ptr @__dynamic_cast(ptr nonnull %1, ptr nonnull @_ZTIN5folly18ThreadPoolExecutor12ThreadHandleE, ptr nonnull @_ZTIN5folly20IOThreadPoolExecutor8IOThreadE, i64 0) #25
  call void @llvm.lifetime.start.p0(i64 16, ptr nonnull %4)
  %10 = icmp eq ptr %9, null
  br i1 %10, label %11, label %_ZN6google12CheckNotNullIPN5folly20IOThreadPoolExecutor8IOThreadEEET_PKciS7_OS5_.exit

11:                                               ; preds = %.thread, %8
  call void @llvm.lifetime.start.p0(i64 8, ptr nonnull %5) #25
  %12 = tail call noalias noundef nonnull dereferenceable(32) ptr @_Znwm(i64 noundef 32) #37
  call void @llvm.lifetime.start.p0(i64 1, ptr nonnull %6) #25
  invoke void @_ZNSt7__cxx1112basic_stringIcSt11char_traitsIcESaIcEEC2IS3_EEPKcRKS3_(ptr noundef nonnull align 8 dereferenceable(32) %12, ptr noundef nonnull @.str.22, ptr noundef nonnull align 1 dereferenceable(1) %6)
          to label %13 unwind label %14

13:                                               ; preds = %11
  store ptr %12, ptr %5, align 8, !tbaa !233
  call void @_ZN6google15LogMessageFatalC1EPKciRKNS_13CheckOpStringE(ptr noundef nonnull align 8 dereferenceable(16) %4, ptr noundef nonnull @.str.2, i32 noundef 309, ptr noundef nonnull align 8 dereferenceable(8) %5)
  call void @_ZN6google15LogMessageFatalD1Ev(ptr noundef nonnull align 8 dereferenceable(16) %4) #36
  unreachable

14:                                               ; preds = %11
  %15 = landingpad { ptr, i32 }
          cleanup
  call void @llvm.lifetime.end.p0(i64 1, ptr nonnull %6) #25
  call void @_ZdlPvm(ptr noundef nonnull %12, i64 noundef 32) #38
  call void @llvm.lifetime.end.p0(i64 8, ptr nonnull %5) #25
  resume { ptr, i32 } %15

_ZN6google12CheckNotNullIPN5folly20IOThreadPoolExecutor8IOThreadEEET_PKciS7_OS5_.exit: ; preds = %8
  call void @llvm.lifetime.end.p0(i64 16, ptr nonnull %4)
  %16 = tail call ptr @__dynamic_cast(ptr nonnull %2, ptr nonnull @_ZTIN5folly18ThreadPoolExecutor8ObserverE, ptr nonnull @_ZTIN5folly24IOThreadPoolExecutorBase10IOObserverE, i64 0) #25
  %.not = icmp eq ptr %16, null
  br i1 %.not, label %23, label %17

17:                                               ; preds = %_ZN6google12CheckNotNullIPN5folly20IOThreadPoolExecutor8IOThreadEEET_PKciS7_OS5_.exit
  %18 = getelementptr inbounds nuw i8, ptr %9, i64 56
  %19 = load ptr, ptr %18, align 8, !tbaa !86
  %20 = load ptr, ptr %16, align 8, !tbaa !25
  %21 = getelementptr inbounds nuw i8, ptr %20, i64 56
  %22 = load ptr, ptr %21, align 8
  tail call void %22(ptr noundef nonnull align 8 dereferenceable(8) %16, ptr noundef nonnull align 16 dereferenceable(632) %19)
  br label %23

23:                                               ; preds = %17, %_ZN6google12CheckNotNullIPN5folly20IOThreadPoolExecutor8IOThreadEEET_PKciS7_OS5_.exit
  ret void
}